#SYMBOLS
Index	Identifier	Type	Flag	Data	Size	RefCount
0	__D0main	6	1	0	4	9
1	__D0SetSensorLight_inline_main	6	1	4	4	6
2	__CLSRMutex1	9	0	8	4	2
3	__RLSBmutex1	9	0	12	4	2
4	__DU0SetSensorLight_inline_main	5	1	16	4	4
5	__signed_stack_001main	6	1	20	4	4
6	__signed_stack_002main	6	1	24	4	4
7	__D0SetSensorLowspeed_inline_main	6	1	28	4	3
8	__DU0SetSensorLowspeed_inline_main	5	1	32	4	2
9	__CLSCSMutex1	9	0	36	4	2
10	__CLSWMutex1	9	0	40	4	2
11	__main_7qG2_value3_7qG2_001	4	1	44	2	2
12	__SetSensorLight_7qG2_bActive_7qG2_000_inline_main	1	1	46	1	4
13	__SetSensorType_7qG2_port_7qG2_000_inline_SetSensorLight_inline_main	1	1	47	1	4
14	__SetSensorType_7qG2_type_7qG2_000_inline_SetSensorLight_inline_main	1	1	48	1	4
15	__constVal1	2	0	49	1	5
16	__constVal0	2	1	50	1	1
17	__SetSensorLight_7qG2_port_7qG2_000_inline_main	1	1	51	1	10
18	____initialize_global_data_return	1	1	52	1	3
19	__SetSensorMode_7qG2_port_7qG2_000_inline_SetSensorLight_inline_main	1	1	53	1	4
20	__SetSensorType_7qG2_type_7qG2_000_inline_SetSensorLowspeed_inline_main	1	1	54	1	2
21	__SetSensorType_7qG2_port_7qG2_000_inline_SetSensorLowspeed_inline_main	1	1	55	1	2
22	__SetSensorMode_7qG2_mode_7qG2_000_inline_SetSensorLowspeed_inline_main	1	1	56	1	2
23	__SetSensorMode_7qG2_port_7qG2_000_inline_SetSensorLowspeed_inline_main	1	1	57	1	2
24	__ResetSensor_7qG2_port_7qG2_000_inline_SetSensorLight_inline_main	1	1	58	1	2
25	__SetSensorMode_7qG2_mode_7qG2_000_inline_SetSensorLight_inline_main	1	1	59	1	4
26	__SetSensorLowspeed_7qG2_bIsPowered_7qG2_000_inline_main	1	1	60	1	2
27	__SetSensorLowspeed_7qG2_port_7qG2_000_inline_main	1	1	61	1	4
28	__zfSetSensorLowspeed_inline_main	1	1	62	1	2
29	__RLSBIterations1	1	1	63	1	4
30	__zfmain	1	1	64	1	2
31	__RLSBytesCount1	1	1	65	1	7
32	____ReadLSBytes1_return	1	1	66	1	3
33	__RLSBResult1	2	1	67	1	7
34	__zfSetSensorLight_inline_main	1	1	68	1	4
35	__ResetSensorTmp	1	1	69	1	2
36	__ResetSensorPort	1	1	70	1	5
37	____ResetSensorSubroutine_return	1	1	71	1	5
38	__TextOutArgs	8	0	4	16	11
39	__TextOutArgs.Result	2	1	72	1	11
40	__TextOutArgs.Location	8	0	2	4	11
41	__TextOutArgs.Location.X	4	1	76	2	11
42	__TextOutArgs.Location.Y	4	1	78	2	11
43	__TextOutArgs.Text	7	0	80	4	11
44	__TextOutArgs.Text.Text_type	1	0	0	1	0
45	__TextOutArgs.Options	5	1	84	4	11
46	__CLSWArgs1	8	0	4	12	5
47	__CLSWArgs1.Result	2	1	88	1	5
48	__CLSWArgs1.Port	1	1	89	1	5
49	__CLSWArgs1.Buffer	7	0	90	4	5
50	__CLSWArgs1.Buffer.Buffer_type	1	0	0	1	0
51	__CLSWArgs1.ReturnLen	1	1	92	1	5
52	__CLSRArgs1	8	0	4	12	5
53	__CLSRArgs1.Result	2	1	96	1	5
54	__CLSRArgs1.Port	1	1	97	1	5
55	__CLSRArgs1.Buffer	7	0	98	4	5
56	__CLSRArgs1.Buffer.Buffer_type	1	0	0	1	0
57	__CLSRArgs1.BufferLen	1	1	100	1	5
58	__CLSCSArgs1	8	0	3	4	4
59	__CLSCSArgs1.Result	2	1	104	1	4
60	__CLSCSArgs1.Port	1	1	105	1	4
61	__CLSCSArgs1.BytesReady	1	1	106	1	4
62	__constStr0009	7	0	108	4	1
63	__constStr0009.__constStr0009_type	1	1	0	1	0
64	__RLSBbufLSWrite1	7	0	110	4	1
65	__RLSBbufLSWrite1.__RLSBbufLSWrite1_type	1	0	0	1	0
66	__strbufmain	7	0	112	4	2
67	__strbufmain.__strbufmain_type	1	0	0	1	0
68	__RLSReadBuf1	7	0	114	4	8
69	__RLSReadBuf1.__RLSReadBuf1_type	1	0	0	1	0
70	__RLSLastGoodRead1	7	0	116	4	2
71	__RLSLastGoodRead1.__RLSLastGoodRead1_type	1	0	0	1	0
#SOURCES
Clump	Line	PC	Source
0	5	0	#line 5 "C:\dev\Robotics\src\Testes\Untitled2.nxc"
0	6	0		subcall __initialize_global_data, ____initialize_global_data_return
0	5	2	#line 5 "C:\dev\Robotics\src\Testes\Untitled2.nxc"
0	5	2	#line 5 "C:\dev\Robotics\src\Testes\Untitled2.nxc"
0	6	2		set __SetSensorLight_7qG2_port_7qG2_000_inline_main, 2
0	5	5	#line 5 "C:\dev\Robotics\src\Testes\Untitled2.nxc"
0	6	5	#line 6 "C:\dev\Robotics\src\Testes\Untitled2.nxc"
0	7	5		mov __SetSensorLight_7qG2_bActive_7qG2_000_inline_main, __constVal1
0	3729	7	#line 3729 "NXCDefs.h"
0	3730	7		mov __SetSensorType_7qG2_port_7qG2_000_inline_SetSensorLight_inline_main, __SetSensorLight_7qG2_port_7qG2_000_inline_main
0	3729	9	#line 3729 "NXCDefs.h"
0	3729	9	#line 3729 "NXCDefs.h"
0	3730	9		mov __DU0SetSensorLight_inline_main, __SetSensorLight_7qG2_bActive_7qG2_000_inline_main
0	3729	11	#line 3729 "NXCDefs.h"
0	3730	11		tst 5, __zfSetSensorLight_inline_main, __DU0SetSensorLight_inline_main
0	3729	14	#line 3729 "NXCDefs.h"
0	3730	14		brtst 4, __001__NXC_Label_4, __zfSetSensorLight_inline_main
0	3729	17	#line 3729 "NXCDefs.h"
0	3730	17		set __D0SetSensorLight_inline_main, 5
0	3729	20	#line 3729 "NXCDefs.h"
0	3730	20		jmp __001__NXC_Label_5
0	3729	22	#line 3729 "NXCDefs.h"
0	3730	22		set __D0SetSensorLight_inline_main, 6
0	3729	25	#line 3729 "NXCDefs.h"
0	3730	25		mov __SetSensorType_7qG2_type_7qG2_000_inline_SetSensorLight_inline_main, __D0SetSensorLight_inline_main
0	3663	27	#line 3663 "NXCDefs.h"
0	3664	27		setin __SetSensorType_7qG2_type_7qG2_000_inline_SetSensorLight_inline_main, __SetSensorType_7qG2_port_7qG2_000_inline_SetSensorLight_inline_main, 0
0	3663	31	#line 3663 "NXCDefs.h"
0	3730	31	#line 3730 "NXCDefs.h"
0	3730	31	#line 3730 "NXCDefs.h"
0	3731	31		mov __SetSensorMode_7qG2_port_7qG2_000_inline_SetSensorLight_inline_main, __SetSensorLight_7qG2_port_7qG2_000_inline_main
0	3730	33	#line 3730 "NXCDefs.h"
0	3730	33	#line 3730 "NXCDefs.h"
0	3731	33		set __SetSensorMode_7qG2_mode_7qG2_000_inline_SetSensorLight_inline_main, 128
0	3730	36	#line 3730 "NXCDefs.h"
0	3676	36	#line 3676 "NXCDefs.h"
0	3677	36		setin __SetSensorMode_7qG2_mode_7qG2_000_inline_SetSensorLight_inline_main, __SetSensorMode_7qG2_port_7qG2_000_inline_SetSensorLight_inline_main, 1
0	3676	40	#line 3676 "NXCDefs.h"
0	3731	40	#line 3731 "NXCDefs.h"
0	3731	40	#line 3731 "NXCDefs.h"
0	3732	40		mov __ResetSensor_7qG2_port_7qG2_000_inline_SetSensorLight_inline_main, __SetSensorLight_7qG2_port_7qG2_000_inline_main
0	3731	42	#line 3731 "NXCDefs.h"
0	3694	42	#line 3694 "NXCDefs.h"
0	3695	42	#pragma macro 4
0	3695	42		mov __ResetSensorPort, __SetSensorLight_7qG2_port_7qG2_000_inline_main
0	3695	44		subcall __ResetSensorSubroutine, ____ResetSensorSubroutine_return
0	5954	46	#line 5954 "NXCDefs.h"
0	3694	46	#line 3694 "NXCDefs.h"
0	3732	46	#line 3732 "NXCDefs.h"
0	6	46	#line 6 "C:\dev\Robotics\src\Testes\Untitled2.nxc"
0	6	46	#line 6 "C:\dev\Robotics\src\Testes\Untitled2.nxc"
0	7	46		set __SetSensorLight_7qG2_port_7qG2_000_inline_main, 3
0	6	49	#line 6 "C:\dev\Robotics\src\Testes\Untitled2.nxc"
0	7	49	#line 7 "C:\dev\Robotics\src\Testes\Untitled2.nxc"
0	8	49		mov __SetSensorLight_7qG2_bActive_7qG2_000_inline_main, __constVal1
0	3729	51	#line 3729 "NXCDefs.h"
0	3730	51		mov __SetSensorType_7qG2_port_7qG2_000_inline_SetSensorLight_inline_main, __SetSensorLight_7qG2_port_7qG2_000_inline_main
0	3729	53	#line 3729 "NXCDefs.h"
0	3729	53	#line 3729 "NXCDefs.h"
0	3730	53		mov __DU0SetSensorLight_inline_main, __SetSensorLight_7qG2_bActive_7qG2_000_inline_main
0	3729	55	#line 3729 "NXCDefs.h"
0	3730	55		tst 5, __zfSetSensorLight_inline_main, __DU0SetSensorLight_inline_main
0	3729	58	#line 3729 "NXCDefs.h"
0	3730	58		brtst 4, __002__NXC_Label_4, __zfSetSensorLight_inline_main
0	3729	61	#line 3729 "NXCDefs.h"
0	3730	61		set __D0SetSensorLight_inline_main, 5
0	3729	64	#line 3729 "NXCDefs.h"
0	3730	64		jmp __002__NXC_Label_5
0	3729	66	#line 3729 "NXCDefs.h"
0	3730	66		set __D0SetSensorLight_inline_main, 6
0	3729	69	#line 3729 "NXCDefs.h"
0	3730	69		mov __SetSensorType_7qG2_type_7qG2_000_inline_SetSensorLight_inline_main, __D0SetSensorLight_inline_main
0	3663	71	#line 3663 "NXCDefs.h"
0	3664	71		setin __SetSensorType_7qG2_type_7qG2_000_inline_SetSensorLight_inline_main, __SetSensorType_7qG2_port_7qG2_000_inline_SetSensorLight_inline_main, 0
0	3663	75	#line 3663 "NXCDefs.h"
0	3730	75	#line 3730 "NXCDefs.h"
0	3730	75	#line 3730 "NXCDefs.h"
0	3731	75		mov __SetSensorMode_7qG2_port_7qG2_000_inline_SetSensorLight_inline_main, __SetSensorLight_7qG2_port_7qG2_000_inline_main
0	3730	77	#line 3730 "NXCDefs.h"
0	3730	77	#line 3730 "NXCDefs.h"
0	3731	77		set __SetSensorMode_7qG2_mode_7qG2_000_inline_SetSensorLight_inline_main, 128
0	3730	80	#line 3730 "NXCDefs.h"
0	3676	80	#line 3676 "NXCDefs.h"
0	3677	80		setin __SetSensorMode_7qG2_mode_7qG2_000_inline_SetSensorLight_inline_main, __SetSensorMode_7qG2_port_7qG2_000_inline_SetSensorLight_inline_main, 1
0	3676	84	#line 3676 "NXCDefs.h"
0	3731	84	#line 3731 "NXCDefs.h"
0	3731	84	#line 3731 "NXCDefs.h"
0	3732	84		mov __ResetSensor_7qG2_port_7qG2_000_inline_SetSensorLight_inline_main, __SetSensorLight_7qG2_port_7qG2_000_inline_main
0	3731	86	#line 3731 "NXCDefs.h"
0	3694	86	#line 3694 "NXCDefs.h"
0	3695	86	#pragma macro 4
0	3695	86		mov __ResetSensorPort, __SetSensorLight_7qG2_port_7qG2_000_inline_main
0	3695	88		subcall __ResetSensorSubroutine, ____ResetSensorSubroutine_return
0	6021	90	#line 6021 "NXCDefs.h"
0	3694	90	#line 3694 "NXCDefs.h"
0	3732	90	#line 3732 "NXCDefs.h"
0	7	90	#line 7 "C:\dev\Robotics\src\Testes\Untitled2.nxc"
0	7	90	#line 7 "C:\dev\Robotics\src\Testes\Untitled2.nxc"
0	8	90		set __SetSensorLowspeed_7qG2_port_7qG2_000_inline_main, 1
0	7	93	#line 7 "C:\dev\Robotics\src\Testes\Untitled2.nxc"
0	9	93	#line 9 "C:\dev\Robotics\src\Testes\Untitled2.nxc"
0	10	93		mov __SetSensorLowspeed_7qG2_bIsPowered_7qG2_000_inline_main, __constVal1
0	3758	95	#line 3758 "NXCDefs.h"
0	3759	95		mov __SetSensorType_7qG2_port_7qG2_000_inline_SetSensorLowspeed_inline_main, __SetSensorLowspeed_7qG2_port_7qG2_000_inline_main
0	3758	97	#line 3758 "NXCDefs.h"
0	3758	97	#line 3758 "NXCDefs.h"
0	3759	97		mov __DU0SetSensorLowspeed_inline_main, __SetSensorLowspeed_7qG2_bIsPowered_7qG2_000_inline_main
0	3758	99	#line 3758 "NXCDefs.h"
0	3759	99		tst 5, __zfSetSensorLowspeed_inline_main, __DU0SetSensorLowspeed_inline_main
0	3758	102	#line 3758 "NXCDefs.h"
0	3759	102		brtst 4, __004__NXC_Label_36, __zfSetSensorLowspeed_inline_main
0	3758	105	#line 3758 "NXCDefs.h"
0	3759	105		set __D0SetSensorLowspeed_inline_main, 11
0	3758	108	#line 3758 "NXCDefs.h"
0	3759	108		jmp __004__NXC_Label_37
0	3758	110	#line 3758 "NXCDefs.h"
0	3759	110		set __D0SetSensorLowspeed_inline_main, 10
0	3758	113	#line 3758 "NXCDefs.h"
0	3759	113		mov __SetSensorType_7qG2_type_7qG2_000_inline_SetSensorLowspeed_inline_main, __D0SetSensorLowspeed_inline_main
0	3663	115	#line 3663 "NXCDefs.h"
0	3664	115		setin __SetSensorType_7qG2_type_7qG2_000_inline_SetSensorLowspeed_inline_main, __SetSensorType_7qG2_port_7qG2_000_inline_SetSensorLowspeed_inline_main, 0
0	3663	119	#line 3663 "NXCDefs.h"
0	3759	119	#line 3759 "NXCDefs.h"
0	3759	119	#line 3759 "NXCDefs.h"
0	3760	119		mov __SetSensorMode_7qG2_port_7qG2_000_inline_SetSensorLowspeed_inline_main, __SetSensorLowspeed_7qG2_port_7qG2_000_inline_main
0	3759	121	#line 3759 "NXCDefs.h"
0	3759	121	#line 3759 "NXCDefs.h"
0	3760	121		set __SetSensorMode_7qG2_mode_7qG2_000_inline_SetSensorLowspeed_inline_main, 0
0	3759	124	#line 3759 "NXCDefs.h"
0	3676	124	#line 3676 "NXCDefs.h"
0	3677	124		setin __SetSensorMode_7qG2_mode_7qG2_000_inline_SetSensorLowspeed_inline_main, __SetSensorMode_7qG2_port_7qG2_000_inline_SetSensorLowspeed_inline_main, 1
0	3676	128	#line 3676 "NXCDefs.h"
0	3760	128	#line 3760 "NXCDefs.h"
0	3760	128	#line 3760 "NXCDefs.h"
0	3760	128	#line 3760 "NXCDefs.h"
0	3694	128	#line 3694 "NXCDefs.h"
0	3695	128	#pragma macro 4
0	3695	128		mov __ResetSensorPort, __SetSensorLowspeed_7qG2_port_7qG2_000_inline_main
0	3695	130		subcall __ResetSensorSubroutine, ____ResetSensorSubroutine_return
0	6116	132	#line 6116 "NXCDefs.h"
0	3694	132	#line 3694 "NXCDefs.h"
0	3761	132	#line 3761 "NXCDefs.h"
0	9	132	#line 9 "C:\dev\Robotics\src\Testes\Untitled2.nxc"
0	9	132	#line 9 "C:\dev\Robotics\src\Testes\Untitled2.nxc"
0	10	132		set __D0main, 1
0	18	135	#line 18 "C:\dev\Robotics\src\Testes\Untitled2.nxc"
0	19	135		tst 5, __zfmain, __D0main
0	18	138	#line 18 "C:\dev\Robotics\src\Testes\Untitled2.nxc"
0	19	138		brtst 4, __NXC_Label_611, __zfmain
0	18	141	#line 18 "C:\dev\Robotics\src\Testes\Untitled2.nxc"
0	19	141	#pragma macro 26
0	19	141		acquire __RLSBmutex1
0	19	142		mov __RLSReadBuf1, __RLSBbufLSWrite1
0	19	144		set __RLSBytesCount1, 1
0	19	147		wait 15
0	19	149		subcall __ReadLSBytes1, ____ReadLSBytes1_return
0	19	151		index __D0main, __RLSReadBuf1, 65535
0	19	155		release __RLSBmutex1
0	6134	156	#line 6134 "C:\dev\Robotics\src\Testes\Untitled2.nxc"
0	18	156	#line 18 "C:\dev\Robotics\src\Testes\Untitled2.nxc"
0	19	156		mov __main_7qG2_value3_7qG2_001, __D0main
0	20	158	#line 20 "C:\dev\Robotics\src\Testes\Untitled2.nxc"
0	21	158		set __signed_stack_001main, 15
0	20	161	#line 20 "C:\dev\Robotics\src\Testes\Untitled2.nxc"
0	20	161	#line 20 "C:\dev\Robotics\src\Testes\Untitled2.nxc"
0	21	161		set __signed_stack_002main, 24
0	20	164	#line 20 "C:\dev\Robotics\src\Testes\Untitled2.nxc"
0	20	164	#line 20 "C:\dev\Robotics\src\Testes\Untitled2.nxc"
0	21	164		strcat __strbufmain, __constStr0009
0	20	168	#line 20 "C:\dev\Robotics\src\Testes\Untitled2.nxc"
0	21	168		set __D0main, 1
0	21	171	#line 21 "C:\dev\Robotics\src\Testes\Untitled2.nxc"
0	21	171	#line 21 "C:\dev\Robotics\src\Testes\Untitled2.nxc"
0	22	171		mov __TextOutArgs.Location.X, __signed_stack_001main
0	21	173	#line 21 "C:\dev\Robotics\src\Testes\Untitled2.nxc"
0	22	173		mov __TextOutArgs.Location.Y, __signed_stack_002main
0	21	175	#line 21 "C:\dev\Robotics\src\Testes\Untitled2.nxc"
0	22	175		mov __TextOutArgs.Options, __D0main
0	21	177	#line 21 "C:\dev\Robotics\src\Testes\Untitled2.nxc"
0	22	177		mov __TextOutArgs.Text, __strbufmain
0	21	179	#line 21 "C:\dev\Robotics\src\Testes\Untitled2.nxc"
0	22	179		syscall 13, __TextOutArgs
0	21	182	#line 21 "C:\dev\Robotics\src\Testes\Untitled2.nxc"
0	21	182	#line 21 "C:\dev\Robotics\src\Testes\Untitled2.nxc"
0	21	182	#line 21 "C:\dev\Robotics\src\Testes\Untitled2.nxc"
0	21	182	#line 21 "C:\dev\Robotics\src\Testes\Untitled2.nxc"
0	22	182		set __signed_stack_001main, 60
0	21	185	#line 21 "C:\dev\Robotics\src\Testes\Untitled2.nxc"
0	21	185	#line 21 "C:\dev\Robotics\src\Testes\Untitled2.nxc"
0	22	185		set __signed_stack_002main, 16
0	21	188	#line 21 "C:\dev\Robotics\src\Testes\Untitled2.nxc"
0	21	188	#line 21 "C:\dev\Robotics\src\Testes\Untitled2.nxc"
0	22	188		mov __D0main, __main_7qG2_value3_7qG2_001
0	23	190	#line 23 "C:\dev\Robotics\src\Testes\Untitled2.nxc"
0	23	190	#line 23 "C:\dev\Robotics\src\Testes\Untitled2.nxc"
0	24	190		mov __TextOutArgs.Location.X, __signed_stack_001main
0	23	192	#line 23 "C:\dev\Robotics\src\Testes\Untitled2.nxc"
0	24	192		mov __TextOutArgs.Location.Y, __signed_stack_002main
0	23	194	#line 23 "C:\dev\Robotics\src\Testes\Untitled2.nxc"
0	24	194		set __TextOutArgs.Options, 0
0	23	197	#line 23 "C:\dev\Robotics\src\Testes\Untitled2.nxc"
0	24	197		numtostr __TextOutArgs.Text, __D0main
0	23	200	#line 23 "C:\dev\Robotics\src\Testes\Untitled2.nxc"
0	24	200		syscall 13, __TextOutArgs
0	23	203	#line 23 "C:\dev\Robotics\src\Testes\Untitled2.nxc"
0	24	203		mov __D0main, __TextOutArgs.Result
0	23	205	#line 23 "C:\dev\Robotics\src\Testes\Untitled2.nxc"
0	23	205	#line 23 "C:\dev\Robotics\src\Testes\Untitled2.nxc"
0	27	205	#line 27 "C:\dev\Robotics\src\Testes\Untitled2.nxc"
0	28	205		jmp __NXC_Label_610
0	27	207	#line 27 "C:\dev\Robotics\src\Testes\Untitled2.nxc"
0	28	207		exit -1, -1
1	4885	0		setin __constVal1, __ResetSensorPort, 5
1	4887	4		getin __ResetSensorTmp, __ResetSensorPort, 5
1	4888	8		brtst 5, __SensorStillInvalid, __ResetSensorTmp
1	4889	11		subret ____ResetSensorSubroutine_return
2	5710	0	#pragma macro 25
2	5710	0		acquire __CLSWMutex1
2	5710	1		set __CLSWArgs1.Port, 1
2	5710	4		mov __CLSWArgs1.ReturnLen, __RLSBytesCount1
2	5710	6		mov __CLSWArgs1.Buffer, __RLSReadBuf1
2	5710	8		syscall 21, __CLSWArgs1
2	5710	11		mov __RLSBResult1, __CLSWArgs1.Result
2	5710	13		release __CLSWMutex1
2	5710	14	#line 5710 "NXTDefs.h"
2	5711	14		brtst 4, __RLSBReturn1, __RLSBytesCount1
2	5712	17		arrinit __RLSReadBuf1, __constVal0, __RLSBytesCount1
2	5713	21		brtst 5, __RLSBError1, __RLSBResult1
2	5714	24		set __RLSBIterations1, 4
2	5716	27	#pragma macro 23
2	5716	27		acquire __CLSCSMutex1
2	5716	28		set __CLSCSArgs1.Port, 1
2	5716	31		syscall 23, __CLSCSArgs1
2	5716	34		mov __RLSBytesCount1, __CLSCSArgs1.BytesReady
2	5716	36		mov __RLSBResult1, __CLSCSArgs1.Result
2	5716	38		release __CLSCSMutex1
2	5716	39	#line 5716 "NXTDefs.h"
2	5717	39		sub __RLSBIterations1, __RLSBIterations1, __constVal1
2	5718	43		brtst 2, __RLSBError1, __RLSBIterations1
2	5719	46		brtst 0, __RLSBError1, __RLSBResult1
2	5720	49		brtst 4, __RLSBReadyToRead1, __RLSBResult1
2	5722	52		wait 15
2	5723	54		jmp __RLSBDoCheckStatus1
2	5726	56	#pragma macro 25
2	5726	56		acquire __CLSRMutex1
2	5726	57		set __CLSRArgs1.Port, 1
2	5726	60		mov __CLSRArgs1.BufferLen, __RLSBytesCount1
2	5726	62		syscall 22, __CLSRArgs1
2	5726	65		mov __RLSReadBuf1, __CLSRArgs1.Buffer
2	5726	67		mov __RLSBResult1, __CLSRArgs1.Result
2	5726	69		release __CLSRMutex1
2	5726	70	#line 5726 "NXTDefs.h"
2	5727	70		brtst 5, __RLSBError1, __RLSBResult1
2	5728	73		mov __RLSLastGoodRead1, __RLSReadBuf1
2	5729	75		jmp __RLSBDone1
2	5731	77		mov __RLSReadBuf1, __RLSLastGoodRead1
2	5733	79		arrsize __RLSBytesCount1, __RLSReadBuf1
2	5735	82		subret ____ReadLSBytes1_return
3	28	0	#line 28 "C:\dev\Robotics\src\Testes\Untitled2.nxc"
3	29	0		subret ____initialize_global_data_return
#CLUMPS
Clump	Name	Offset	File
0	main	0	C:\dev\Robotics\src\Testes\Untitled2.nxc
1	__ResetSensorSubroutine	210	NXTDefs.h
2	__ReadLSBytes1	223	NXTDefs.h
3	__initialize_global_data	307	C:\dev\Robotics\src\Testes\Untitled2.nxc
